; Function Attrs: nounwind uwtable
define internal void @cntCluster(ptr readnone captures(none) %0, ptr noundef %1, ptr noundef captures(none) %2) #4 {
  %4 = load i32, ptr %1, align 8
  %5 = and i32 %4, 3
  %6 = icmp eq i32 %5, 0
  br i1 %6, label %7, label %12

7:                                                ; preds = %3
  %8 = tail call zeroext i1 @is_a_cluster(ptr noundef nonnull %1) #15
  br i1 %8, label %9, label %12

9:                                                ; preds = %7
  %10 = load i32, ptr %2, align 4, !tbaa !4
  %11 = add nsw i32 %10, 1
  store i32 %11, ptr %2, align 4, !tbaa !4
  br label %12

12:                                               ; preds = %9, %7, %3
  ret void
}